; Function Attrs: mustprogress nofree norecurse nosync nounwind willreturn memory(argmem: read) uwtable
define dso_local noundef range(i32 0, 16) i32 @_ZNK5clang8DeclSpec19getParsedSpecifiersEv(ptr nocapture noundef nonnull readonly align 8 dereferenceable(360) %0) local_unnamed_addr #8 align 2 {
  %2 = load i64, ptr %0, align 8
  %3 = and i64 %2, 31
  %or.cond = icmp ne i64 %3, 0
  %.0 = zext i1 %or.cond to i32
  %4 = and i64 %2, 2080374784
  %.not6 = icmp eq i64 %4, 0
  %5 = or disjoint i32 %.0, 4
  %.1 = select i1 %.not6, i32 %.0, i32 %5
  %6 = and i64 %2, 524224
  %.not = icmp eq i64 %6, 0
  %7 = or disjoint i32 %.1, 2
  %.2 = select i1 %.not, i32 %.1, i32 %7
  %8 = getelementptr inbounds nuw i8, ptr %0, i64 24
  %.0.copyload.i.i.i.i.i = load i64, ptr %8, align 8
  %9 = icmp eq i64 %.0.copyload.i.i.i.i.i, 0
  %10 = and i64 %2, 32212254720
  %11 = icmp eq i64 %10, 0
  %or.cond15 = select i1 %11, i1 %9, i1 false
  %12 = or disjoint i32 %.2, 8
  %.3 = select i1 %or.cond15, i32 %.2, i32 %12
  ret i32 %.3
}